target datalayout = "e-m:e-p270:32:32-p271:32:32-p272:64:64-i64:64-i128:128-f80:128-n8:16:32:64-S128"
target triple = "x86_64-pc-linux-gnu"

%"class.std::__cxx11::basic_string" = type { %"struct.std::__cxx11::basic_string<char>::_Alloc_hider", i64, %union.anon }
%"struct.std::__cxx11::basic_string<char>::_Alloc_hider" = type { ptr }
%union.anon = type { i64, [8 x i8] }
%"class.absl::debian2::Span" = type { ptr, i64 }
%class.anon = type { ptr, ptr }

@.str = private unnamed_addr constant [124 x i8] c"generated/home/dtcxzyw/WorkSpace/Projects/compilers/llvm-opt-benchmark/bench/openspiel/open_spiel/open_spiel/spiel_utils.cc\00", align 1
@.str.1 = private unnamed_addr constant [2 x i8] c":\00", align 1
@.str.27 = private unnamed_addr constant [14 x i8] c" CHECK_FALSE(\00", align 1
@.str.28 = private unnamed_addr constant [16 x i8] c"weights.empty()\00", align 1
@.str.29 = private unnamed_addr constant [2 x i8] c")\00", align 1
@.str.30 = private unnamed_addr constant [23 x i8] c"std::isnan(normalizer)\00", align 1

; Function Attrs: mustprogress nounwind uwtable
define linkonce_odr noundef ptr @_ZNK4absl7debian24SpanIdE4dataEv(ptr noundef nonnull align 8 dereferenceable(16) %0) #4 comdat align 2 {
  %2 = alloca ptr, align 8
  store ptr %0, ptr %2, align 8
  %3 = load ptr, ptr %2, align 8
  %4 = getelementptr inbounds nuw %"class.absl::debian2::Span", ptr %3, i32 0, i32 0
  %5 = load ptr, ptr %4, align 8
  ret ptr %5
}

; Function Attrs: mustprogress nounwind uwtable
define linkonce_odr noundef ptr @_ZNK4absl7debian24SpanIdE3endEv(ptr noundef nonnull align 8 dereferenceable(16) %0) #4 comdat align 2 {
  %2 = alloca ptr, align 8
  store ptr %0, ptr %2, align 8
  %3 = load ptr, ptr %2, align 8
  %4 = call noundef ptr @_ZNK4absl7debian24SpanIdE4dataEv(ptr noundef nonnull align 8 dereferenceable(16) %3) #3
  %5 = call noundef i64 @_ZNK4absl7debian24SpanIdE4sizeEv(ptr noundef nonnull align 8 dereferenceable(16) %3) #3
  %6 = getelementptr inbounds double, ptr %4, i64 %5
  ret ptr %6
}

; Function Attrs: mustprogress nounwind uwtable
define linkonce_odr noundef ptr @_ZNK4absl7debian24SpanIdE5beginEv(ptr noundef nonnull align 8 dereferenceable(16) %0) #4 comdat align 2 {
  %2 = alloca ptr, align 8
  store ptr %0, ptr %2, align 8
  %3 = load ptr, ptr %2, align 8
  %4 = call noundef ptr @_ZNK4absl7debian24SpanIdE4dataEv(ptr noundef nonnull align 8 dereferenceable(16) %3) #3
  ret ptr %4
}

; Function Attrs: mustprogress nounwind uwtable
define internal void @"_ZZN10open_spiel9NormalizeEN4absl7debian24SpanIdEEENK3$_0clERd"(ptr noundef nonnull align 8 dereferenceable(16) %0, ptr noundef nonnull align 8 dereferenceable(8) %1) #4 align 2 {
  %3 = alloca ptr, align 8
  %4 = alloca ptr, align 8
  store ptr %0, ptr %3, align 8
  store ptr %1, ptr %4, align 8
  %5 = load ptr, ptr %3, align 8
  %6 = getelementptr inbounds nuw %class.anon, ptr %5, i32 0, i32 0
  %7 = load ptr, ptr %6, align 8
  %8 = load double, ptr %7, align 8
  %9 = fcmp oeq double %8, 0.000000e+00
  br i1 %9, label %10, label %14

10:                                               ; preds = %2
  %11 = getelementptr inbounds nuw %class.anon, ptr %5, i32 0, i32 1
  %12 = load ptr, ptr %11, align 8
  %13 = load double, ptr %12, align 8
  br label %21

14:                                               ; preds = %2
  %15 = load ptr, ptr %4, align 8
  %16 = load double, ptr %15, align 8
  %17 = getelementptr inbounds nuw %class.anon, ptr %5, i32 0, i32 0
  %18 = load ptr, ptr %17, align 8
  %19 = load double, ptr %18, align 8
  %20 = fdiv double %16, %19
  br label %21

21:                                               ; preds = %14, %10
  %22 = phi double [ %13, %10 ], [ %20, %14 ]
  %23 = load ptr, ptr %4, align 8
  store double %22, ptr %23, align 8
  ret void
}

; Function Attrs: mustprogress nounwind uwtable
define linkonce_odr noundef ptr @_ZSt3endIN4absl7debian24SpanIdEEEDTcldtfp_3endEERT_(ptr noundef nonnull align 8 dereferenceable(16) %0) #4 comdat {
  %2 = alloca ptr, align 8
  store ptr %0, ptr %2, align 8
  %3 = load ptr, ptr %2, align 8
  %4 = call noundef ptr @_ZNK4absl7debian24SpanIdE3endEv(ptr noundef nonnull align 8 dereferenceable(16) %3) #3
  ret ptr %4
}

; Function Attrs: mustprogress nounwind uwtable
define linkonce_odr noundef ptr @_ZSt5beginIN4absl7debian24SpanIdEEEDTcldtfp_5beginEERT_(ptr noundef nonnull align 8 dereferenceable(16) %0) #4 comdat {
  %2 = alloca ptr, align 8
  store ptr %0, ptr %2, align 8
  %3 = load ptr, ptr %2, align 8
  %4 = call noundef ptr @_ZNK4absl7debian24SpanIdE5beginEv(ptr noundef nonnull align 8 dereferenceable(16) %3) #3
  ret ptr %4
}

; Function Attrs: mustprogress nounwind uwtable
define linkonce_odr noundef ptr @_ZSt3endIN4absl7debian24SpanIdEEEDTcldtfp_3endEERKT_(ptr noundef nonnull align 8 dereferenceable(16) %0) #4 comdat {
  %2 = alloca ptr, align 8
  store ptr %0, ptr %2, align 8
  %3 = load ptr, ptr %2, align 8
  %4 = call noundef ptr @_ZNK4absl7debian24SpanIdE3endEv(ptr noundef nonnull align 8 dereferenceable(16) %3) #3
  ret ptr %4
}

; Function Attrs: mustprogress nounwind uwtable
define linkonce_odr noundef ptr @_ZSt5beginIN4absl7debian24SpanIdEEEDTcldtfp_5beginEERKT_(ptr noundef nonnull align 8 dereferenceable(16) %0) #4 comdat {
  %2 = alloca ptr, align 8
  store ptr %0, ptr %2, align 8
  %3 = load ptr, ptr %2, align 8
  %4 = call noundef ptr @_ZNK4absl7debian24SpanIdE5beginEv(ptr noundef nonnull align 8 dereferenceable(16) %3) #3
  ret ptr %4
}

; Function Attrs: mustprogress uwtable
define internal { ptr, ptr } @"_ZSt8for_eachIPdZN10open_spiel9NormalizeEN4absl7debian24SpanIdEEE3$_0ET0_T_S8_S7_"(ptr noundef %0, ptr noundef %1, ptr %2, ptr %3) #5 {
  %5 = alloca %class.anon, align 8
  %6 = alloca %class.anon, align 8
  %7 = alloca ptr, align 8
  %8 = alloca ptr, align 8
  %9 = getelementptr inbounds nuw { ptr, ptr }, ptr %6, i32 0, i32 0
  store ptr %2, ptr %9, align 8
  %10 = getelementptr inbounds nuw { ptr, ptr }, ptr %6, i32 0, i32 1
  store ptr %3, ptr %10, align 8
  store ptr %0, ptr %7, align 8
  store ptr %1, ptr %8, align 8
  br label %11

11:                                               ; preds = %17, %4
  %12 = load ptr, ptr %7, align 8
  %13 = load ptr, ptr %8, align 8
  %14 = icmp ne ptr %12, %13
  br i1 %14, label %15, label %20

15:                                               ; preds = %11
  %16 = load ptr, ptr %7, align 8
  call void @"_ZZN10open_spiel9NormalizeEN4absl7debian24SpanIdEEENK3$_0clERd"(ptr noundef nonnull align 8 dereferenceable(16) %6, ptr noundef nonnull align 8 dereferenceable(8) %16)
  br label %17

17:                                               ; preds = %15
  %18 = load ptr, ptr %7, align 8
  %19 = getelementptr inbounds double, ptr %18, i32 1
  store ptr %19, ptr %7, align 8
  br label %11, !llvm.loop !15

20:                                               ; preds = %11
  call void @llvm.memcpy.p0.p0.i64(ptr align 8 %5, ptr align 8 %6, i64 16, i1 false)
  %21 = load { ptr, ptr }, ptr %5, align 8
  ret { ptr, ptr } %21
}

; Function Attrs: mustprogress uwtable
define linkonce_odr noundef ptr @_ZN4absl7debian228container_algorithm_internal5c_endINS0_4SpanIdEEEEDTcl5beginclsr3stdE7declvalIRT_EEEES6_(ptr noundef nonnull align 8 dereferenceable(16) %0) #5 comdat {
  %2 = alloca ptr, align 8
  store ptr %0, ptr %2, align 8
  %3 = load ptr, ptr %2, align 8
  %4 = call noundef ptr @_ZSt3endIN4absl7debian24SpanIdEEEDTcldtfp_3endEERT_(ptr noundef nonnull align 8 dereferenceable(16) %3)
  ret ptr %4
}

; Function Attrs: mustprogress uwtable
define linkonce_odr noundef ptr @_ZN4absl7debian228container_algorithm_internal7c_beginINS0_4SpanIdEEEEDTcl5beginclsr3stdE7declvalIRT_EEEES6_(ptr noundef nonnull align 8 dereferenceable(16) %0) #5 comdat {
  %2 = alloca ptr, align 8
  store ptr %0, ptr %2, align 8
  %3 = load ptr, ptr %2, align 8
  %4 = call noundef ptr @_ZSt5beginIN4absl7debian24SpanIdEEEDTcldtfp_5beginEERT_(ptr noundef nonnull align 8 dereferenceable(16) %3)
  ret ptr %4
}

; Function Attrs: mustprogress nounwind uwtable
define linkonce_odr noundef double @_ZSt10accumulateIPddET0_T_S2_S1_(ptr noundef %0, ptr noundef %1, double noundef %2) #4 comdat {
  %4 = alloca ptr, align 8
  %5 = alloca ptr, align 8
  %6 = alloca double, align 8
  store ptr %0, ptr %4, align 8
  store ptr %1, ptr %5, align 8
  store double %2, ptr %6, align 8
  br label %7

7:                                                ; preds = %16, %3
  %8 = load ptr, ptr %4, align 8
  %9 = load ptr, ptr %5, align 8
  %10 = icmp ne ptr %8, %9
  br i1 %10, label %11, label %19

11:                                               ; preds = %7
  %12 = load double, ptr %6, align 8
  %13 = load ptr, ptr %4, align 8
  %14 = load double, ptr %13, align 8
  %15 = fadd double %12, %14
  store double %15, ptr %6, align 8
  br label %16

16:                                               ; preds = %11
  %17 = load ptr, ptr %4, align 8
  %18 = getelementptr inbounds double, ptr %17, i32 1
  store ptr %18, ptr %4, align 8
  br label %7, !llvm.loop !14

19:                                               ; preds = %7
  %20 = load double, ptr %6, align 8
  ret double %20
}

; Function Attrs: mustprogress uwtable
define linkonce_odr noundef ptr @_ZN4absl7debian228container_algorithm_internal5c_endIKNS0_4SpanIdEEEEDTcl5beginclsr3stdE7declvalIRT_EEEES7_(ptr noundef nonnull align 8 dereferenceable(16) %0) #5 comdat {
  %2 = alloca ptr, align 8
  store ptr %0, ptr %2, align 8
  %3 = load ptr, ptr %2, align 8
  %4 = call noundef ptr @_ZSt3endIN4absl7debian24SpanIdEEEDTcldtfp_3endEERKT_(ptr noundef nonnull align 8 dereferenceable(16) %3)
  ret ptr %4
}

; Function Attrs: mustprogress uwtable
define linkonce_odr noundef ptr @_ZN4absl7debian228container_algorithm_internal7c_beginIKNS0_4SpanIdEEEEDTcl5beginclsr3stdE7declvalIRT_EEEES7_(ptr noundef nonnull align 8 dereferenceable(16) %0) #5 comdat {
  %2 = alloca ptr, align 8
  store ptr %0, ptr %2, align 8
  %3 = load ptr, ptr %2, align 8
  %4 = call noundef ptr @_ZSt5beginIN4absl7debian24SpanIdEEEDTcldtfp_5beginEERKT_(ptr noundef nonnull align 8 dereferenceable(16) %3)
  ret ptr %4
}

; Function Attrs: mustprogress uwtable
define internal { ptr, ptr } @"_ZN4absl7debian210c_for_eachIRNS0_4SpanIdEEZN10open_spiel9NormalizeES3_E3$_0EENSt5decayIT0_E4typeEOT_OS8_"(ptr noundef nonnull align 8 dereferenceable(16) %0, ptr noundef nonnull align 8 dereferenceable(16) %1) #5 {
  %3 = alloca %class.anon, align 8
  %4 = alloca ptr, align 8
  %5 = alloca ptr, align 8
  %6 = alloca %class.anon, align 8
  store ptr %0, ptr %4, align 8
  store ptr %1, ptr %5, align 8
  %7 = load ptr, ptr %4, align 8
  %8 = call noundef ptr @_ZN4absl7debian228container_algorithm_internal7c_beginINS0_4SpanIdEEEEDTcl5beginclsr3stdE7declvalIRT_EEEES6_(ptr noundef nonnull align 8 dereferenceable(16) %7)
  %9 = load ptr, ptr %4, align 8
  %10 = call noundef ptr @_ZN4absl7debian228container_algorithm_internal5c_endINS0_4SpanIdEEEEDTcl5beginclsr3stdE7declvalIRT_EEEES6_(ptr noundef nonnull align 8 dereferenceable(16) %9)
  %11 = load ptr, ptr %5, align 8
  call void @llvm.memcpy.p0.p0.i64(ptr align 8 %6, ptr align 8 %11, i64 16, i1 false)
  %12 = getelementptr inbounds nuw { ptr, ptr }, ptr %6, i32 0, i32 0
  %13 = load ptr, ptr %12, align 8
  %14 = getelementptr inbounds nuw { ptr, ptr }, ptr %6, i32 0, i32 1
  %15 = load ptr, ptr %14, align 8
  %16 = call { ptr, ptr } @"_ZSt8for_eachIPdZN10open_spiel9NormalizeEN4absl7debian24SpanIdEEE3$_0ET0_T_S8_S7_"(ptr noundef %8, ptr noundef %10, ptr %13, ptr %15)
  %17 = getelementptr inbounds nuw { ptr, ptr }, ptr %3, i32 0, i32 0
  %18 = extractvalue { ptr, ptr } %16, 0
  store ptr %18, ptr %17, align 8
  %19 = getelementptr inbounds nuw { ptr, ptr }, ptr %3, i32 0, i32 1
  %20 = extractvalue { ptr, ptr } %16, 1
  store ptr %20, ptr %19, align 8
  %21 = load { ptr, ptr }, ptr %3, align 8
  ret { ptr, ptr } %21
}

; Function Attrs: mustprogress nounwind uwtable
define linkonce_odr noundef i64 @_ZNK4absl7debian24SpanIdE4sizeEv(ptr noundef nonnull align 8 dereferenceable(16) %0) #4 comdat align 2 {
  %2 = alloca ptr, align 8
  store ptr %0, ptr %2, align 8
  %3 = load ptr, ptr %2, align 8
  %4 = getelementptr inbounds nuw %"class.absl::debian2::Span", ptr %3, i32 0, i32 1
  %5 = load i64, ptr %4, align 8
  ret i64 %5
}

; Function Attrs: mustprogress nounwind uwtable
define linkonce_odr noundef zeroext i1 @_ZSt5isnand(double noundef %0) #4 comdat {
  %2 = alloca double, align 8
  store double %0, ptr %2, align 8
  %3 = load double, ptr %2, align 8
  %4 = call i1 @llvm.is.fpclass.f64(double %3, i32 3)
  ret i1 %4
}

; Function Attrs: mustprogress uwtable
define linkonce_odr noundef double @_ZN4absl7debian212c_accumulateINS0_4SpanIdEEdEENSt5decayIT0_E4typeERKT_OS5_(ptr noundef nonnull align 8 dereferenceable(16) %0, ptr noundef nonnull align 8 dereferenceable(8) %1) #5 comdat {
  %3 = alloca ptr, align 8
  %4 = alloca ptr, align 8
  store ptr %0, ptr %3, align 8
  store ptr %1, ptr %4, align 8
  %5 = load ptr, ptr %3, align 8
  %6 = call noundef ptr @_ZN4absl7debian228container_algorithm_internal7c_beginIKNS0_4SpanIdEEEEDTcl5beginclsr3stdE7declvalIRT_EEEES7_(ptr noundef nonnull align 8 dereferenceable(16) %5)
  %7 = load ptr, ptr %3, align 8
  %8 = call noundef ptr @_ZN4absl7debian228container_algorithm_internal5c_endIKNS0_4SpanIdEEEEDTcl5beginclsr3stdE7declvalIRT_EEEES7_(ptr noundef nonnull align 8 dereferenceable(16) %7)
  %9 = load ptr, ptr %4, align 8
  %10 = load double, ptr %9, align 8
  %11 = call noundef double @_ZSt10accumulateIPddET0_T_S2_S1_(ptr noundef %6, ptr noundef %8, double noundef %10)
  ret double %11
}

; Function Attrs: mustprogress nounwind uwtable
define linkonce_odr noundef zeroext i1 @_ZNK4absl7debian24SpanIdE5emptyEv(ptr noundef nonnull align 8 dereferenceable(16) %0) #4 comdat align 2 {
  %2 = alloca ptr, align 8
  store ptr %0, ptr %2, align 8
  %3 = load ptr, ptr %2, align 8
  %4 = call noundef i64 @_ZNK4absl7debian24SpanIdE4sizeEv(ptr noundef nonnull align 8 dereferenceable(16) %3) #3
  %5 = icmp eq i64 %4, 0
  ret i1 %5
}

; Function Attrs: mustprogress uwtable
define void @_ZN10open_spiel9NormalizeEN4absl7debian24SpanIdEE(ptr %0, i64 %1) #5 personality ptr @__gxx_personality_v0 {
  %3 = alloca %"class.absl::debian2::Span", align 8
  %4 = alloca %"class.std::__cxx11::basic_string", align 8
  %5 = alloca i32, align 4
  %6 = alloca ptr, align 8
  %7 = alloca i32, align 4
  %8 = alloca double, align 8
  %9 = alloca double, align 8
  %10 = alloca %"class.std::__cxx11::basic_string", align 8
  %11 = alloca i32, align 4
  %12 = alloca double, align 8
  %13 = alloca %class.anon, align 8
  %14 = alloca %class.anon, align 8
  %15 = getelementptr inbounds nuw { ptr, i64 }, ptr %3, i32 0, i32 0
  store ptr %0, ptr %15, align 8
  %16 = getelementptr inbounds nuw { ptr, i64 }, ptr %3, i32 0, i32 1
  store i64 %1, ptr %16, align 8
  br label %17

17:                                               ; preds = %2
  %18 = call noundef zeroext i1 @_ZNK4absl7debian24SpanIdE5emptyEv(ptr noundef nonnull align 8 dereferenceable(16) %3) #3
  br i1 %18, label %19, label %25

19:                                               ; preds = %17
  store i32 144, ptr %5, align 4
  call void @_ZN10open_spiel8internal11SpielStrCatIJRA124_KcRA2_S2_iRA14_S2_RA16_S2_S6_EEENSt7__cxx1112basic_stringIcSt11char_traitsIcESaIcEEEDpOT_(ptr dead_on_unwind writable sret(%"class.std::__cxx11::basic_string") align 8 %4, ptr noundef nonnull align 1 dereferenceable(124) @.str, ptr noundef nonnull align 1 dereferenceable(2) @.str.1, ptr noundef nonnull align 4 dereferenceable(4) %5, ptr noundef nonnull align 1 dereferenceable(14) @.str.27, ptr noundef nonnull align 1 dereferenceable(16) @.str.28, ptr noundef nonnull align 1 dereferenceable(2) @.str.29)
  invoke void @_ZN10open_spiel15SpielFatalErrorERKNSt7__cxx1112basic_stringIcSt11char_traitsIcESaIcEEE(ptr noundef nonnull align 8 dereferenceable(32) %4) #17
          to label %20 unwind label %21

20:                                               ; preds = %19
  unreachable

21:                                               ; preds = %19
  %22 = landingpad { ptr, i32 }
          cleanup
  %23 = extractvalue { ptr, i32 } %22, 0
  store ptr %23, ptr %6, align 8
  %24 = extractvalue { ptr, i32 } %22, 1
  store i32 %24, ptr %7, align 4
  call void @_ZNSt7__cxx1112basic_stringIcSt11char_traitsIcESaIcEED1Ev(ptr noundef nonnull align 8 dereferenceable(32) %4) #3
  br label %47

25:                                               ; preds = %17
  store double 0.000000e+00, ptr %9, align 8
  %26 = call noundef double @_ZN4absl7debian212c_accumulateINS0_4SpanIdEEdEENSt5decayIT0_E4typeERKT_OS5_(ptr noundef nonnull align 8 dereferenceable(16) %3, ptr noundef nonnull align 8 dereferenceable(8) %9)
  store double %26, ptr %8, align 8
  br label %27

27:                                               ; preds = %25
  %28 = load double, ptr %8, align 8
  %29 = call noundef zeroext i1 @_ZSt5isnand(double noundef %28)
  br i1 %29, label %30, label %36

30:                                               ; preds = %27
  store i32 146, ptr %11, align 4
  call void @_ZN10open_spiel8internal11SpielStrCatIJRA124_KcRA2_S2_iRA14_S2_RA23_S2_S6_EEENSt7__cxx1112basic_stringIcSt11char_traitsIcESaIcEEEDpOT_(ptr dead_on_unwind writable sret(%"class.std::__cxx11::basic_string") align 8 %10, ptr noundef nonnull align 1 dereferenceable(124) @.str, ptr noundef nonnull align 1 dereferenceable(2) @.str.1, ptr noundef nonnull align 4 dereferenceable(4) %11, ptr noundef nonnull align 1 dereferenceable(14) @.str.27, ptr noundef nonnull align 1 dereferenceable(23) @.str.30, ptr noundef nonnull align 1 dereferenceable(2) @.str.29)
  invoke void @_ZN10open_spiel15SpielFatalErrorERKNSt7__cxx1112basic_stringIcSt11char_traitsIcESaIcEEE(ptr noundef nonnull align 8 dereferenceable(32) %10) #17
          to label %31 unwind label %32

31:                                               ; preds = %30
  unreachable

32:                                               ; preds = %30
  %33 = landingpad { ptr, i32 }
          cleanup
  %34 = extractvalue { ptr, i32 } %33, 0
  store ptr %34, ptr %6, align 8
  %35 = extractvalue { ptr, i32 } %33, 1
  store i32 %35, ptr %7, align 4
  call void @_ZNSt7__cxx1112basic_stringIcSt11char_traitsIcESaIcEED1Ev(ptr noundef nonnull align 8 dereferenceable(32) %10) #3
  br label %47

36:                                               ; preds = %27
  %37 = call noundef i64 @_ZNK4absl7debian24SpanIdE4sizeEv(ptr noundef nonnull align 8 dereferenceable(16) %3) #3
  %38 = uitofp i64 %37 to double
  %39 = fdiv double 1.000000e+00, %38
  store double %39, ptr %12, align 8
  %40 = getelementptr inbounds nuw %class.anon, ptr %13, i32 0, i32 0
  store ptr %8, ptr %40, align 8
  %41 = getelementptr inbounds nuw %class.anon, ptr %13, i32 0, i32 1
  store ptr %12, ptr %41, align 8
  %42 = call { ptr, ptr } @"_ZN4absl7debian210c_for_eachIRNS0_4SpanIdEEZN10open_spiel9NormalizeES3_E3$_0EENSt5decayIT0_E4typeEOT_OS8_"(ptr noundef nonnull align 8 dereferenceable(16) %3, ptr noundef nonnull align 8 dereferenceable(16) %13)
  %43 = getelementptr inbounds nuw { ptr, ptr }, ptr %14, i32 0, i32 0
  %44 = extractvalue { ptr, ptr } %42, 0
  store ptr %44, ptr %43, align 8
  %45 = getelementptr inbounds nuw { ptr, ptr }, ptr %14, i32 0, i32 1
  %46 = extractvalue { ptr, ptr } %42, 1
  store ptr %46, ptr %45, align 8
  ret void

47:                                               ; preds = %32, %21
  %48 = load ptr, ptr %6, align 8
  %49 = load i32, ptr %7, align 4
  %50 = insertvalue { ptr, i32 } poison, ptr %48, 0
  %51 = insertvalue { ptr, i32 } %50, i32 %49, 1
  resume { ptr, i32 } %51
}