; Function Attrs: mustprogress uwtable
define void @_ZN10open_spiel9NormalizeEN4absl7debian24SpanIdEE(ptr %0, i64 %1) local_unnamed_addr #4 personality ptr @__gxx_personality_v0 {
  %3 = alloca %"class.std::__cxx11::basic_string", align 8
  %4 = alloca i32, align 4
  %5 = alloca %"class.std::__cxx11::basic_string", align 8
  %6 = alloca i32, align 4
  %7 = icmp eq i64 %1, 0
  br i1 %7, label %8, label %12

8:                                                ; preds = %2
  store i32 144, ptr %4, align 4
  call void @_ZN10open_spiel8internal11SpielStrCatIJRA124_KcRA2_S2_iRA14_S2_RA16_S2_S6_EEENSt7__cxx1112basic_stringIcSt11char_traitsIcESaIcEEEDpOT_(ptr dead_on_unwind nonnull writable sret(%"class.std::__cxx11::basic_string") align 8 %3, ptr noundef nonnull align 1 dereferenceable(124) @.str, ptr noundef nonnull align 1 dereferenceable(2) @.str.1, ptr noundef nonnull align 4 dereferenceable(4) %4, ptr noundef nonnull align 1 dereferenceable(14) @.str.27, ptr noundef nonnull align 1 dereferenceable(16) @.str.28, ptr noundef nonnull align 1 dereferenceable(2) @.str.29)
  invoke void @_ZN10open_spiel15SpielFatalErrorERKNSt7__cxx1112basic_stringIcSt11char_traitsIcESaIcEEE(ptr noundef nonnull align 8 dereferenceable(32) %3) #20
          to label %9 unwind label %10

9:                                                ; preds = %8
  unreachable

10:                                               ; preds = %8
  %11 = landingpad { ptr, i32 }
          cleanup
  br label %30

12:                                               ; preds = %2
  %13 = getelementptr inbounds double, ptr %0, i64 %1
  br label %.lr.ph.i.i

.lr.ph.i.i:                                       ; preds = %12, %.lr.ph.i.i
  %.09.i.i = phi double [ %15, %.lr.ph.i.i ], [ 0.000000e+00, %12 ]
  %.068.i.i = phi ptr [ %16, %.lr.ph.i.i ], [ %0, %12 ]
  %14 = load double, ptr %.068.i.i, align 8
  %15 = fadd double %.09.i.i, %14
  %16 = getelementptr inbounds i8, ptr %.068.i.i, i64 8
  %.not.i.i = icmp eq ptr %16, %13
  br i1 %.not.i.i, label %_ZN4absl7debian212c_accumulateINS0_4SpanIdEEdEENSt5decayIT0_E4typeERKT_OS5_.exit, label %.lr.ph.i.i, !llvm.loop !12

_ZN4absl7debian212c_accumulateINS0_4SpanIdEEdEENSt5decayIT0_E4typeERKT_OS5_.exit: ; preds = %.lr.ph.i.i
  %17 = fcmp uno double %15, 0.000000e+00
  br i1 %17, label %18, label %22

18:                                               ; preds = %_ZN4absl7debian212c_accumulateINS0_4SpanIdEEdEENSt5decayIT0_E4typeERKT_OS5_.exit
  store i32 146, ptr %6, align 4
  call void @_ZN10open_spiel8internal11SpielStrCatIJRA124_KcRA2_S2_iRA14_S2_RA23_S2_S6_EEENSt7__cxx1112basic_stringIcSt11char_traitsIcESaIcEEEDpOT_(ptr dead_on_unwind nonnull writable sret(%"class.std::__cxx11::basic_string") align 8 %5, ptr noundef nonnull align 1 dereferenceable(124) @.str, ptr noundef nonnull align 1 dereferenceable(2) @.str.1, ptr noundef nonnull align 4 dereferenceable(4) %6, ptr noundef nonnull align 1 dereferenceable(14) @.str.27, ptr noundef nonnull align 1 dereferenceable(23) @.str.30, ptr noundef nonnull align 1 dereferenceable(2) @.str.29)
  invoke void @_ZN10open_spiel15SpielFatalErrorERKNSt7__cxx1112basic_stringIcSt11char_traitsIcESaIcEEE(ptr noundef nonnull align 8 dereferenceable(32) %5) #20
          to label %19 unwind label %20

19:                                               ; preds = %18
  unreachable

20:                                               ; preds = %18
  %21 = landingpad { ptr, i32 }
          cleanup
  br label %30

22:                                               ; preds = %_ZN4absl7debian212c_accumulateINS0_4SpanIdEEdEENSt5decayIT0_E4typeERKT_OS5_.exit
  %23 = uitofp i64 %1 to double
  %24 = fdiv double 1.000000e+00, %23
  %25 = fcmp oeq double %15, 0.000000e+00
  br i1 %25, label %.lr.ph.i.i6.us, label %.lr.ph.i.i6

.lr.ph.i.i6.us:                                   ; preds = %22, %.lr.ph.i.i6.us
  %.06.i.i.us = phi ptr [ %26, %.lr.ph.i.i6.us ], [ %0, %22 ]
  store double %24, ptr %.06.i.i.us, align 8
  %26 = getelementptr inbounds i8, ptr %.06.i.i.us, i64 8
  %.not.i.i7.us = icmp eq ptr %26, %13
  br i1 %.not.i.i7.us, label %"_ZN4absl7debian210c_for_eachIRNS0_4SpanIdEEZN10open_spiel9NormalizeES3_E3$_0EENSt5decayIT0_E4typeEOT_OS8_.exit", label %.lr.ph.i.i6.us, !llvm.loop !13

.lr.ph.i.i6:                                      ; preds = %22, %.lr.ph.i.i6
  %.06.i.i = phi ptr [ %29, %.lr.ph.i.i6 ], [ %0, %22 ]
  %27 = load double, ptr %.06.i.i, align 8
  %28 = fdiv double %27, %15
  store double %28, ptr %.06.i.i, align 8
  %29 = getelementptr inbounds i8, ptr %.06.i.i, i64 8
  %.not.i.i7 = icmp eq ptr %29, %13
  br i1 %.not.i.i7, label %"_ZN4absl7debian210c_for_eachIRNS0_4SpanIdEEZN10open_spiel9NormalizeES3_E3$_0EENSt5decayIT0_E4typeEOT_OS8_.exit", label %.lr.ph.i.i6, !llvm.loop !13

"_ZN4absl7debian210c_for_eachIRNS0_4SpanIdEEZN10open_spiel9NormalizeES3_E3$_0EENSt5decayIT0_E4typeEOT_OS8_.exit": ; preds = %.lr.ph.i.i6, %.lr.ph.i.i6.us
  ret void

30:                                               ; preds = %20, %10
  %.sink = phi ptr [ %5, %20 ], [ %3, %10 ]
  %.pn = phi { ptr, i32 } [ %21, %20 ], [ %11, %10 ]
  call void @_ZNSt7__cxx1112basic_stringIcSt11char_traitsIcESaIcEED1Ev(ptr noundef nonnull align 8 dereferenceable(32) %.sink) #21
  resume { ptr, i32 } %.pn
}